target datalayout = "e-m:e-p270:32:32-p271:32:32-p272:64:64-i64:64-i128:128-f80:128-n8:16:32:64-S128"
target triple = "x86_64-pc-linux-gnu"

%struct.ident_split = type { ptr, ptr, ptr, ptr, ptr, ptr, ptr, ptr }

@.str.13 = private unnamed_addr constant [6 x i8] c"%.*s \00", align 1
@.str.14 = private unnamed_addr constant [8 x i8] c"<%.*s>\0A\00", align 1

; Function Attrs: nounwind uwtable
define internal void @check_mailmap(ptr noundef %0, ptr noundef %1) #0 {
  %3 = alloca ptr, align 8
  %4 = alloca ptr, align 8
  %5 = alloca ptr, align 8
  %6 = alloca ptr, align 8
  %7 = alloca i64, align 8
  %8 = alloca i64, align 8
  %9 = alloca %struct.ident_split, align 8
  store ptr %0, ptr %3, align 8, !tbaa !25
  store ptr %1, ptr %4, align 8, !tbaa !11
  call void @llvm.lifetime.start.p0(i64 8, ptr %5) #9
  call void @llvm.lifetime.start.p0(i64 8, ptr %6) #9
  call void @llvm.lifetime.start.p0(i64 8, ptr %7) #9
  call void @llvm.lifetime.start.p0(i64 8, ptr %8) #9
  call void @llvm.lifetime.start.p0(i64 64, ptr %9) #9
  %10 = load ptr, ptr %4, align 8, !tbaa !11
  %11 = load ptr, ptr %4, align 8, !tbaa !11
  %12 = call i64 @strlen(ptr noundef %11) #11
  %13 = trunc i64 %12 to i32
  %14 = call i32 @split_ident_line(ptr noundef %9, ptr noundef %10, i32 noundef %13)
  %15 = icmp ne i32 %14, 0
  br i1 %15, label %35, label %16

16:                                               ; preds = %2
  %17 = getelementptr inbounds nuw %struct.ident_split, ptr %9, i32 0, i32 0
  %18 = load ptr, ptr %17, align 8, !tbaa !27
  store ptr %18, ptr %5, align 8, !tbaa !11
  %19 = getelementptr inbounds nuw %struct.ident_split, ptr %9, i32 0, i32 1
  %20 = load ptr, ptr %19, align 8, !tbaa !29
  %21 = getelementptr inbounds nuw %struct.ident_split, ptr %9, i32 0, i32 0
  %22 = load ptr, ptr %21, align 8, !tbaa !27
  %23 = ptrtoint ptr %20 to i64
  %24 = ptrtoint ptr %22 to i64
  %25 = sub i64 %23, %24
  store i64 %25, ptr %7, align 8, !tbaa !30
  %26 = getelementptr inbounds nuw %struct.ident_split, ptr %9, i32 0, i32 2
  %27 = load ptr, ptr %26, align 8, !tbaa !31
  store ptr %27, ptr %6, align 8, !tbaa !11
  %28 = getelementptr inbounds nuw %struct.ident_split, ptr %9, i32 0, i32 3
  %29 = load ptr, ptr %28, align 8, !tbaa !32
  %30 = getelementptr inbounds nuw %struct.ident_split, ptr %9, i32 0, i32 2
  %31 = load ptr, ptr %30, align 8, !tbaa !31
  %32 = ptrtoint ptr %29 to i64
  %33 = ptrtoint ptr %31 to i64
  %34 = sub i64 %32, %33
  store i64 %34, ptr %8, align 8, !tbaa !30
  br label %39

35:                                               ; preds = %2
  store ptr null, ptr %5, align 8, !tbaa !11
  store i64 0, ptr %7, align 8, !tbaa !30
  %36 = load ptr, ptr %4, align 8, !tbaa !11
  store ptr %36, ptr %6, align 8, !tbaa !11
  %37 = load ptr, ptr %4, align 8, !tbaa !11
  %38 = call i64 @strlen(ptr noundef %37) #11
  store i64 %38, ptr %8, align 8, !tbaa !30
  br label %39

39:                                               ; preds = %35, %16
  %40 = load ptr, ptr %3, align 8, !tbaa !25
  %41 = call i32 @map_user(ptr noundef %40, ptr noundef %6, ptr noundef %8, ptr noundef %5, ptr noundef %7)
  %42 = load i64, ptr %7, align 8, !tbaa !30
  %43 = icmp ne i64 %42, 0
  br i1 %43, label %44, label %49

44:                                               ; preds = %39
  %45 = load i64, ptr %7, align 8, !tbaa !30
  %46 = trunc i64 %45 to i32
  %47 = load ptr, ptr %5, align 8, !tbaa !11
  %48 = call i32 (ptr, ...) @printf(ptr noundef @.str.13, i32 noundef %46, ptr noundef %47)
  br label %49

49:                                               ; preds = %44, %39
  %50 = load i64, ptr %8, align 8, !tbaa !30
  %51 = trunc i64 %50 to i32
  %52 = load ptr, ptr %6, align 8, !tbaa !11
  %53 = call i32 (ptr, ...) @printf(ptr noundef @.str.14, i32 noundef %51, ptr noundef %52)
  call void @llvm.lifetime.end.p0(i64 64, ptr %9) #9
  call void @llvm.lifetime.end.p0(i64 8, ptr %8) #9
  call void @llvm.lifetime.end.p0(i64 8, ptr %7) #9
  call void @llvm.lifetime.end.p0(i64 8, ptr %6) #9
  call void @llvm.lifetime.end.p0(i64 8, ptr %5) #9
  ret void
}