; Function Attrs: nounwind uwtable
define internal fastcc void @check_mailmap(ptr noundef nonnull %0, ptr noundef %1) unnamed_addr #0 {
  %3 = alloca ptr, align 8
  %4 = alloca ptr, align 8
  %5 = alloca i64, align 8
  %6 = alloca i64, align 8
  %7 = alloca %struct.ident_split, align 8
  call void @llvm.lifetime.start.p0(i64 8, ptr nonnull %3) #10
  call void @llvm.lifetime.start.p0(i64 8, ptr nonnull %4) #10
  call void @llvm.lifetime.start.p0(i64 8, ptr nonnull %5) #10
  call void @llvm.lifetime.start.p0(i64 8, ptr nonnull %6) #10
  call void @llvm.lifetime.start.p0(i64 64, ptr nonnull %7) #10
  %8 = tail call i64 @strlen(ptr noundef nonnull dereferenceable(1) %1) #12
  %9 = trunc i64 %8 to i32
  %10 = call i32 @split_ident_line(ptr noundef nonnull %7, ptr noundef nonnull %1, i32 noundef %9) #10
  %.not = icmp eq i32 %10, 0
  br i1 %.not, label %11, label %25

11:                                               ; preds = %2
  %12 = load ptr, ptr %7, align 8, !tbaa !21
  %13 = getelementptr inbounds nuw i8, ptr %7, i64 8
  %14 = load ptr, ptr %13, align 8, !tbaa !23
  %15 = ptrtoint ptr %14 to i64
  %16 = ptrtoint ptr %12 to i64
  %17 = sub i64 %15, %16
  %18 = getelementptr inbounds nuw i8, ptr %7, i64 16
  %19 = load ptr, ptr %18, align 8, !tbaa !24
  %20 = getelementptr inbounds nuw i8, ptr %7, i64 24
  %21 = load ptr, ptr %20, align 8, !tbaa !25
  %22 = ptrtoint ptr %21 to i64
  %23 = ptrtoint ptr %19 to i64
  %24 = sub i64 %22, %23
  br label %27

25:                                               ; preds = %2
  %26 = call i64 @strlen(ptr noundef nonnull dereferenceable(1) %1) #12
  br label %27

27:                                               ; preds = %25, %11
  %.sink7 = phi ptr [ %12, %11 ], [ null, %25 ]
  %.sink6 = phi i64 [ %17, %11 ], [ 0, %25 ]
  %.sink = phi ptr [ %19, %11 ], [ %1, %25 ]
  %storemerge = phi i64 [ %24, %11 ], [ %26, %25 ]
  store ptr %.sink7, ptr %3, align 8, !tbaa !9
  store i64 %.sink6, ptr %5, align 8, !tbaa !26
  store ptr %.sink, ptr %4, align 8, !tbaa !9
  store i64 %storemerge, ptr %6, align 8, !tbaa !26
  %28 = call i32 @map_user(ptr noundef nonnull %0, ptr noundef nonnull %4, ptr noundef nonnull %6, ptr noundef nonnull %3, ptr noundef nonnull %5) #10
  %29 = load i64, ptr %5, align 8, !tbaa !26
  %.not5 = icmp eq i64 %29, 0
  br i1 %.not5, label %34, label %30

30:                                               ; preds = %27
  %31 = trunc i64 %29 to i32
  %32 = load ptr, ptr %3, align 8, !tbaa !9
  %33 = call i32 (ptr, ...) @printf(ptr noundef nonnull dereferenceable(1) @.str.13, i32 noundef %31, ptr noundef %32)
  br label %34

34:                                               ; preds = %30, %27
  %35 = load i64, ptr %6, align 8, !tbaa !26
  %36 = trunc i64 %35 to i32
  %37 = load ptr, ptr %4, align 8, !tbaa !9
  %38 = call i32 (ptr, ...) @printf(ptr noundef nonnull dereferenceable(1) @.str.14, i32 noundef %36, ptr noundef %37)
  call void @llvm.lifetime.end.p0(i64 64, ptr nonnull %7) #10
  call void @llvm.lifetime.end.p0(i64 8, ptr nonnull %6) #10
  call void @llvm.lifetime.end.p0(i64 8, ptr nonnull %5) #10
  call void @llvm.lifetime.end.p0(i64 8, ptr nonnull %4) #10
  call void @llvm.lifetime.end.p0(i64 8, ptr nonnull %3) #10
  ret void
}